target datalayout = "e-m:e-p270:32:32-p271:32:32-p272:64:64-i64:64-i128:128-f80:128-n8:16:32:64-S128"
target triple = "x86_64-pc-linux-gnu"

@.str = private unnamed_addr constant [1 x i8] zeroinitializer, align 1
@CompilationMode = external global ptr, align 8
@.str.14 = private unnamed_addr constant [56 x i8] c"Unsupported compilation mode '%s', available modes are:\00", align 1
@.str.15 = private unnamed_addr constant [14 x i8] c"%s quick-only\00", align 1
@.str.16 = private unnamed_addr constant [2 x i8] c",\00", align 1
@.str.17 = private unnamed_addr constant [13 x i8] c"%s high-only\00", align 1
@.str.18 = private unnamed_addr constant [28 x i8] c"%s high-only-quick-internal\00", align 1
@.str.19 = private unnamed_addr constant [2 x i8] c"\0A\00", align 1
@DisplayVMOutputToStdout = external global i8, align 1
@_ZN13defaultStream14_output_streamE = external global ptr, align 8
@_ZN13defaultStream13_error_streamE = external global ptr, align 8

; Function Attrs: mustprogress nounwind uwtable
define linkonce_odr hidden noundef ptr @_ZN13defaultStream12error_streamEv() #1 comdat align 2 {
  %1 = load i8, ptr @DisplayVMOutputToStdout, align 1
  %2 = trunc i8 %1 to i1
  br i1 %2, label %3, label %5

3:                                                ; preds = %0
  %4 = load ptr, ptr @_ZN13defaultStream14_output_streamE, align 8
  br label %7

5:                                                ; preds = %0
  %6 = load ptr, ptr @_ZN13defaultStream13_error_streamE, align 8
  br label %7

7:                                                ; preds = %5, %3
  %8 = phi ptr [ %4, %3 ], [ %6, %5 ]
  ret ptr %8
}

; Function Attrs: mustprogress nounwind uwtable
define hidden void @_ZN19CompilationModeFlag11print_errorEv() #1 align 2 {
  %1 = alloca i8, align 1
  %2 = call noundef ptr @_ZN13defaultStream12error_streamEv()
  %3 = load ptr, ptr @CompilationMode, align 8
  %4 = call i32 (ptr, ptr, ...) @jio_fprintf(ptr noundef %2, ptr noundef @.str.14, ptr noundef %3)
  store i8 0, ptr %1, align 1
  %5 = call noundef ptr @_ZN13defaultStream12error_streamEv()
  %6 = load i8, ptr %1, align 1
  %7 = trunc i8 %6 to i1
  %8 = select i1 %7, ptr @.str.16, ptr @.str
  %9 = call i32 (ptr, ptr, ...) @jio_fprintf(ptr noundef %5, ptr noundef @.str.15, ptr noundef %8)
  store i8 1, ptr %1, align 1
  %10 = call noundef ptr @_ZN13defaultStream12error_streamEv()
  %11 = load i8, ptr %1, align 1
  %12 = trunc i8 %11 to i1
  %13 = select i1 %12, ptr @.str.16, ptr @.str
  %14 = call i32 (ptr, ptr, ...) @jio_fprintf(ptr noundef %10, ptr noundef @.str.17, ptr noundef %13)
  store i8 1, ptr %1, align 1
  %15 = call noundef ptr @_ZN13defaultStream12error_streamEv()
  %16 = load i8, ptr %1, align 1
  %17 = trunc i8 %16 to i1
  %18 = select i1 %17, ptr @.str.16, ptr @.str
  %19 = call i32 (ptr, ptr, ...) @jio_fprintf(ptr noundef %15, ptr noundef @.str.18, ptr noundef %18)
  store i8 1, ptr %1, align 1
  %20 = call noundef ptr @_ZN13defaultStream12error_streamEv()
  %21 = call i32 (ptr, ptr, ...) @jio_fprintf(ptr noundef %20, ptr noundef @.str.19)
  ret void
}