; Function Attrs: mustprogress nounwind uwtable
define hidden void @_ZN19CompilationModeFlag11print_errorEv() local_unnamed_addr #0 align 2 {
  %1 = load i8, ptr @DisplayVMOutputToStdout, align 1
  %2 = trunc i8 %1 to i1
  %3 = load ptr, ptr @_ZN13defaultStream14_output_streamE, align 8
  %4 = load ptr, ptr @_ZN13defaultStream13_error_streamE, align 8
  %5 = select i1 %2, ptr %3, ptr %4
  %6 = load ptr, ptr @CompilationMode, align 8
  %7 = tail call i32 (ptr, ptr, ...) @jio_fprintf(ptr noundef %5, ptr noundef nonnull @.str.14, ptr noundef %6) #11
  %8 = load i8, ptr @DisplayVMOutputToStdout, align 1
  %9 = trunc i8 %8 to i1
  %10 = load ptr, ptr @_ZN13defaultStream14_output_streamE, align 8
  %11 = load ptr, ptr @_ZN13defaultStream13_error_streamE, align 8
  %12 = select i1 %9, ptr %10, ptr %11
  %13 = tail call i32 (ptr, ptr, ...) @jio_fprintf(ptr noundef %12, ptr noundef nonnull @.str.15, ptr noundef nonnull @.str) #11
  %14 = load i8, ptr @DisplayVMOutputToStdout, align 1
  %15 = trunc i8 %14 to i1
  %16 = load ptr, ptr @_ZN13defaultStream14_output_streamE, align 8
  %17 = load ptr, ptr @_ZN13defaultStream13_error_streamE, align 8
  %18 = select i1 %15, ptr %16, ptr %17
  %19 = tail call i32 (ptr, ptr, ...) @jio_fprintf(ptr noundef %18, ptr noundef nonnull @.str.17, ptr noundef nonnull @.str.16) #11
  %20 = load i8, ptr @DisplayVMOutputToStdout, align 1
  %21 = trunc i8 %20 to i1
  %22 = load ptr, ptr @_ZN13defaultStream14_output_streamE, align 8
  %23 = load ptr, ptr @_ZN13defaultStream13_error_streamE, align 8
  %24 = select i1 %21, ptr %22, ptr %23
  %25 = tail call i32 (ptr, ptr, ...) @jio_fprintf(ptr noundef %24, ptr noundef nonnull @.str.18, ptr noundef nonnull @.str.16) #11
  %26 = load i8, ptr @DisplayVMOutputToStdout, align 1
  %27 = trunc i8 %26 to i1
  %28 = load ptr, ptr @_ZN13defaultStream14_output_streamE, align 8
  %29 = load ptr, ptr @_ZN13defaultStream13_error_streamE, align 8
  %30 = select i1 %27, ptr %28, ptr %29
  %31 = tail call i32 (ptr, ptr, ...) @jio_fprintf(ptr noundef %30, ptr noundef nonnull @.str.19) #11
  ret void
}